target datalayout = "e-m:e-p270:32:32-p271:32:32-p272:64:64-i64:64-i128:128-f80:128-n8:16:32:64-S128"
target triple = "x86_64-pc-linux-gnu"

@.str.50 = private unnamed_addr constant [1 x i8] zeroinitializer, align 1
@.str.225 = private unnamed_addr constant [21 x i8] c"%lu-byte opaque type\00", align 1
@.str.226 = private unnamed_addr constant [13 x i8] c"\0A%*s(tag = \22\00", align 1
@.str.227 = private unnamed_addr constant [3 x i8] c"\22)\00", align 1

; Function Attrs: nounwind uwtable
define internal zeroext i1 @print_opaque_type(ptr noundef %0, i64 noundef %1, i32 noundef %2) #0 {
  %4 = alloca i1, align 1
  %5 = alloca ptr, align 8
  %6 = alloca i64, align 8
  %7 = alloca i32, align 4
  %8 = alloca ptr, align 8
  %9 = alloca i64, align 8
  %10 = alloca i32, align 4
  store ptr %0, ptr %5, align 8, !tbaa !81
  store i64 %1, ptr %6, align 8, !tbaa !11
  store i32 %2, ptr %7, align 4, !tbaa !4
  call void @llvm.lifetime.start.p0(i64 8, ptr %8) #12
  call void @llvm.lifetime.start.p0(i64 8, ptr %9) #12
  %11 = load i64, ptr %6, align 8, !tbaa !11
  %12 = call i32 @H5Tget_class(i64 noundef %11)
  %13 = icmp ne i32 5, %12
  br i1 %13, label %14, label %15

14:                                               ; preds = %3
  store i1 false, ptr %4, align 1
  store i32 1, ptr %10, align 4
  br label %36

15:                                               ; preds = %3
  %16 = load i64, ptr %6, align 8, !tbaa !11
  %17 = call i64 @H5Tget_size(i64 noundef %16)
  store i64 %17, ptr %9, align 8, !tbaa !11
  %18 = load ptr, ptr %5, align 8, !tbaa !81
  %19 = load i64, ptr %9, align 8, !tbaa !11
  %20 = call ptr (ptr, ptr, ...) @h5tools_str_append(ptr noundef %18, ptr noundef @.str.225, i64 noundef %19)
  %21 = load i64, ptr %6, align 8, !tbaa !11
  %22 = call ptr @H5Tget_tag(i64 noundef %21)
  store ptr %22, ptr %8, align 8, !tbaa !13
  %23 = icmp ne ptr %22, null
  br i1 %23, label %24, label %35

24:                                               ; preds = %15
  %25 = load ptr, ptr %5, align 8, !tbaa !81
  %26 = load i32, ptr %7, align 4, !tbaa !4
  %27 = call ptr (ptr, ptr, ...) @h5tools_str_append(ptr noundef %25, ptr noundef @.str.226, i32 noundef %26, ptr noundef @.str.50)
  %28 = load ptr, ptr %5, align 8, !tbaa !81
  %29 = load ptr, ptr %8, align 8, !tbaa !13
  %30 = call i32 @print_string(ptr noundef %28, ptr noundef %29, i1 noundef zeroext false)
  %31 = load ptr, ptr %5, align 8, !tbaa !81
  %32 = call ptr (ptr, ptr, ...) @h5tools_str_append(ptr noundef %31, ptr noundef @.str.227)
  %33 = load ptr, ptr %8, align 8, !tbaa !13
  %34 = call i32 @H5free_memory(ptr noundef %33)
  br label %35

35:                                               ; preds = %24, %15
  store i1 true, ptr %4, align 1
  store i32 1, ptr %10, align 4
  br label %36

36:                                               ; preds = %35, %14
  call void @llvm.lifetime.end.p0(i64 8, ptr %9) #12
  call void @llvm.lifetime.end.p0(i64 8, ptr %8) #12
  %37 = load i1, ptr %4, align 1
  ret i1 %37
}