; Function Attrs: nounwind uwtable
define internal fastcc noundef zeroext i1 @print_opaque_type(ptr noundef nonnull %0, i64 noundef range(i64 0, -9223372036854775808) %1, i32 noundef %2) unnamed_addr #4 {
  %4 = tail call i32 @H5Tget_class(i64 noundef %1) #20
  %.not = icmp eq i32 %4, 5
  br i1 %.not, label %5, label %14

5:                                                ; preds = %3
  %6 = tail call i64 @H5Tget_size(i64 noundef %1) #20
  %7 = tail call ptr (ptr, ptr, ...) @h5tools_str_append(ptr noundef nonnull %0, ptr noundef nonnull @.str.225, i64 noundef %6) #20
  %8 = tail call ptr @H5Tget_tag(i64 noundef %1) #20
  %.not12 = icmp eq ptr %8, null
  br i1 %.not12, label %14, label %9

9:                                                ; preds = %5
  %10 = tail call ptr (ptr, ptr, ...) @h5tools_str_append(ptr noundef nonnull %0, ptr noundef nonnull @.str.226, i32 noundef %2, ptr noundef nonnull @.str.50) #20
  %11 = tail call fastcc i32 @print_string(ptr noundef nonnull %0, ptr noundef nonnull %8, i1 noundef zeroext false)
  %12 = tail call ptr (ptr, ptr, ...) @h5tools_str_append(ptr noundef nonnull %0, ptr noundef nonnull @.str.227) #20
  %13 = tail call i32 @H5free_memory(ptr noundef nonnull %8) #20
  br label %14

14:                                               ; preds = %5, %9, %3
  ret i1 %.not
}